target datalayout = "e-m:e-p270:32:32-p271:32:32-p272:64:64-i64:64-i128:128-f80:128-n8:16:32:64-S128"
target triple = "x86_64-pc-linux-gnu"

%struct.sigchain_signal = type { ptr, i32, i32 }

@signals = internal global [32 x %struct.sigchain_signal] zeroinitializer, align 16
@.str = private unnamed_addr constant [11 x i8] c"sigchain.c\00", align 1
@.str.1 = private unnamed_addr constant [24 x i8] c"signal out of range: %d\00", align 1

; Function Attrs: nounwind uwtable
define internal void @check_signum(i32 noundef %0) #0 {
  %2 = alloca i32, align 4
  store i32 %0, ptr %2, align 4, !tbaa !4
  %3 = load i32, ptr %2, align 4, !tbaa !4
  %4 = icmp slt i32 %3, 1
  br i1 %4, label %8, label %5

5:                                                ; preds = %1
  %6 = load i32, ptr %2, align 4, !tbaa !4
  %7 = icmp sge i32 %6, 32
  br i1 %7, label %8, label %10

8:                                                ; preds = %5, %1
  %9 = load i32, ptr %2, align 4, !tbaa !4
  call void (ptr, i32, ptr, ...) @BUG_fl(ptr noundef @.str, i32 noundef 16, ptr noundef @.str.1, i32 noundef %9) #7
  unreachable

10:                                               ; preds = %5
  ret void
}

; Function Attrs: nounwind uwtable
define dso_local i32 @sigchain_pop(i32 noundef %0) #0 {
  %2 = alloca i32, align 4
  %3 = alloca i32, align 4
  %4 = alloca ptr, align 8
  %5 = alloca i32, align 4
  store i32 %0, ptr %3, align 4, !tbaa !4
  call void @llvm.lifetime.start.p0(i64 8, ptr %4) #6
  %6 = load i32, ptr %3, align 4, !tbaa !4
  %7 = sext i32 %6 to i64
  %8 = getelementptr inbounds %struct.sigchain_signal, ptr @signals, i64 %7
  store ptr %8, ptr %4, align 8, !tbaa !10
  %9 = load i32, ptr %3, align 4, !tbaa !4
  call void @check_signum(i32 noundef %9)
  %10 = load ptr, ptr %4, align 8, !tbaa !10
  %11 = getelementptr inbounds nuw %struct.sigchain_signal, ptr %10, i32 0, i32 1
  %12 = load i32, ptr %11, align 8, !tbaa !12
  %13 = icmp slt i32 %12, 1
  br i1 %13, label %14, label %15

14:                                               ; preds = %1
  store i32 0, ptr %2, align 4
  store i32 1, ptr %5, align 4
  br label %35

15:                                               ; preds = %1
  %16 = load i32, ptr %3, align 4, !tbaa !4
  %17 = load ptr, ptr %4, align 8, !tbaa !10
  %18 = getelementptr inbounds nuw %struct.sigchain_signal, ptr %17, i32 0, i32 0
  %19 = load ptr, ptr %18, align 8, !tbaa !15
  %20 = load ptr, ptr %4, align 8, !tbaa !10
  %21 = getelementptr inbounds nuw %struct.sigchain_signal, ptr %20, i32 0, i32 1
  %22 = load i32, ptr %21, align 8, !tbaa !12
  %23 = sub nsw i32 %22, 1
  %24 = sext i32 %23 to i64
  %25 = getelementptr inbounds ptr, ptr %19, i64 %24
  %26 = load ptr, ptr %25, align 8, !tbaa !8
  %27 = call ptr @signal(i32 noundef %16, ptr noundef %26) #6
  %28 = icmp eq ptr %27, inttoptr (i64 -1 to ptr)
  br i1 %28, label %29, label %30

29:                                               ; preds = %15
  store i32 -1, ptr %2, align 4
  store i32 1, ptr %5, align 4
  br label %35

30:                                               ; preds = %15
  %31 = load ptr, ptr %4, align 8, !tbaa !10
  %32 = getelementptr inbounds nuw %struct.sigchain_signal, ptr %31, i32 0, i32 1
  %33 = load i32, ptr %32, align 8, !tbaa !12
  %34 = add nsw i32 %33, -1
  store i32 %34, ptr %32, align 8, !tbaa !12
  store i32 0, ptr %2, align 4
  store i32 1, ptr %5, align 4
  br label %35

35:                                               ; preds = %30, %29, %14
  call void @llvm.lifetime.end.p0(i64 8, ptr %4) #6
  %36 = load i32, ptr %2, align 4
  ret i32 %36
}