; Function Attrs: nounwind uwtable
define dso_local range(i32 -1, 1) i32 @sigchain_pop(i32 noundef %0) local_unnamed_addr #0 {
  %2 = sext i32 %0 to i64
  %3 = getelementptr inbounds %struct.sigchain_signal, ptr @signals, i64 %2
  %4 = add i32 %0, -32
  %or.cond.i = icmp ult i32 %4, -31
  br i1 %or.cond.i, label %5, label %check_signum.exit

5:                                                ; preds = %1
  tail call void (ptr, i32, ptr, ...) @BUG_fl(ptr noundef nonnull @.str, i32 noundef 16, ptr noundef nonnull @.str.1, i32 noundef %0) #4
  unreachable

check_signum.exit:                                ; preds = %1
  %6 = getelementptr inbounds nuw i8, ptr %3, i64 8
  %7 = load i32, ptr %6, align 8, !tbaa !4
  %8 = icmp slt i32 %7, 1
  br i1 %8, label %20, label %9

9:                                                ; preds = %check_signum.exit
  %10 = load ptr, ptr %3, align 16, !tbaa !11
  %11 = zext nneg i32 %7 to i64
  %12 = getelementptr ptr, ptr %10, i64 %11
  %13 = getelementptr i8, ptr %12, i64 -8
  %14 = load ptr, ptr %13, align 8, !tbaa !12
  %15 = tail call ptr @signal(i32 noundef %0, ptr noundef %14) #5
  %16 = icmp eq ptr %15, inttoptr (i64 -1 to ptr)
  br i1 %16, label %20, label %17

17:                                               ; preds = %9
  %18 = load i32, ptr %6, align 8, !tbaa !4
  %19 = add nsw i32 %18, -1
  store i32 %19, ptr %6, align 8, !tbaa !4
  br label %20

20:                                               ; preds = %9, %check_signum.exit, %17
  %.0 = phi i32 [ 0, %17 ], [ 0, %check_signum.exit ], [ -1, %9 ]
  ret i32 %.0
}